(dp1
S'id'
p2
(dp3
S'length'
p4
I512
sS'unique'
p5
I00
sS'sortable'
p6
I1
sS'sql'
p7
S'INT AUTO_INCREMENT NOT NULL'
p8
sS'notnull'
p9
I00
sS'type'
p10
g2
ssS'randomNumber'
p11
(dp12
g4
I512
sg5
I00
sg6
I2
sg7
S'VARCHAR(512)'
p13
sg9
I00
sg10
S'string'
p14
ss.